target datalayout = "e-m:e-p270:32:32-p271:32:32-p272:64:64-i64:64-i128:128-f80:128-n8:16:32:64-S128"
target triple = "x86_64-pc-linux-gnu"

%struct._zval_struct = type { %union._zend_value, %union.anon, %union.anon.2 }
%union._zend_value = type { i64 }
%union.anon = type { i32 }
%union.anon.2 = type { i32 }
%struct._zend_refcounted_h = type { i32, %union.anon.3 }
%union.anon.3 = type { i32 }
%struct._Bucket = type { %struct._zval_struct, i64, ptr }
%struct._zend_string = type { %struct._zend_refcounted_h, i64, i64, [1 x i8] }

; Function Attrs: alwaysinline nounwind uwtable
define internal ptr @zend_print_ulong_to_buf(ptr noundef %0, i64 noundef %1) #5 {
  %3 = alloca ptr, align 8
  %4 = alloca i64, align 8
  store ptr %0, ptr %3, align 8, !tbaa !18
  store i64 %1, ptr %4, align 8, !tbaa !15
  %5 = load ptr, ptr %3, align 8, !tbaa !18
  store i8 0, ptr %5, align 1, !tbaa !17
  br label %6

6:                                                ; preds = %17, %2
  %7 = load i64, ptr %4, align 8, !tbaa !15
  %8 = urem i64 %7, 10
  %9 = trunc i64 %8 to i8
  %10 = sext i8 %9 to i32
  %11 = add nsw i32 %10, 48
  %12 = trunc i32 %11 to i8
  %13 = load ptr, ptr %3, align 8, !tbaa !18
  %14 = getelementptr inbounds i8, ptr %13, i32 -1
  store ptr %14, ptr %3, align 8, !tbaa !18
  store i8 %12, ptr %14, align 1, !tbaa !17
  %15 = load i64, ptr %4, align 8, !tbaa !15
  %16 = udiv i64 %15, 10
  store i64 %16, ptr %4, align 8, !tbaa !15
  br label %17

17:                                               ; preds = %6
  %18 = load i64, ptr %4, align 8, !tbaa !15
  %19 = icmp ugt i64 %18, 0
  br i1 %19, label %6, label %20

20:                                               ; preds = %17
  %21 = load ptr, ptr %3, align 8, !tbaa !18
  ret ptr %21
}

; Function Attrs: alwaysinline nounwind uwtable
define internal ptr @zend_print_long_to_buf(ptr noundef %0, i64 noundef %1) #5 {
  %3 = alloca ptr, align 8
  %4 = alloca ptr, align 8
  %5 = alloca i64, align 8
  %6 = alloca ptr, align 8
  store ptr %0, ptr %4, align 8, !tbaa !18
  store i64 %1, ptr %5, align 8, !tbaa !15
  %7 = load i64, ptr %5, align 8, !tbaa !15
  %8 = icmp slt i64 %7, 0
  br i1 %8, label %9, label %18

9:                                                ; preds = %2
  call void @llvm.lifetime.start.p0(i64 8, ptr %6) #17
  %10 = load ptr, ptr %4, align 8, !tbaa !18
  %11 = load i64, ptr %5, align 8, !tbaa !15
  %12 = xor i64 %11, -1
  %13 = add i64 %12, 1
  %14 = call ptr @zend_print_ulong_to_buf(ptr noundef %10, i64 noundef %13)
  store ptr %14, ptr %6, align 8, !tbaa !18
  %15 = load ptr, ptr %6, align 8, !tbaa !18
  %16 = getelementptr inbounds i8, ptr %15, i32 -1
  store ptr %16, ptr %6, align 8, !tbaa !18
  store i8 45, ptr %16, align 1, !tbaa !17
  %17 = load ptr, ptr %6, align 8, !tbaa !18
  store ptr %17, ptr %3, align 8
  call void @llvm.lifetime.end.p0(i64 8, ptr %6) #17
  br label %22

18:                                               ; preds = %2
  %19 = load ptr, ptr %4, align 8, !tbaa !18
  %20 = load i64, ptr %5, align 8, !tbaa !15
  %21 = call ptr @zend_print_ulong_to_buf(ptr noundef %19, i64 noundef %20)
  store ptr %21, ptr %3, align 8
  br label %22

22:                                               ; preds = %18, %9
  %23 = load ptr, ptr %3, align 8
  ret ptr %23
}

; Function Attrs: nounwind uwtable
define internal i32 @php_array_key_compare_string_natural_general(ptr noundef %0, ptr noundef %1, i32 noundef %2) #0 {
  %4 = alloca ptr, align 8
  %5 = alloca ptr, align 8
  %6 = alloca i32, align 4
  %7 = alloca ptr, align 8
  %8 = alloca ptr, align 8
  %9 = alloca i64, align 8
  %10 = alloca i64, align 8
  %11 = alloca [21 x i8], align 16
  %12 = alloca [21 x i8], align 16
  store ptr %0, ptr %4, align 8, !tbaa !85
  store ptr %1, ptr %5, align 8, !tbaa !85
  store i32 %2, ptr %6, align 4, !tbaa !4
  call void @llvm.lifetime.start.p0(i64 8, ptr %7) #17
  call void @llvm.lifetime.start.p0(i64 8, ptr %8) #17
  call void @llvm.lifetime.start.p0(i64 8, ptr %9) #17
  call void @llvm.lifetime.start.p0(i64 8, ptr %10) #17
  call void @llvm.lifetime.start.p0(i64 21, ptr %11) #17
  call void @llvm.lifetime.start.p0(i64 21, ptr %12) #17
  %13 = load ptr, ptr %4, align 8, !tbaa !85
  %14 = getelementptr inbounds nuw %struct._Bucket, ptr %13, i32 0, i32 2
  %15 = load ptr, ptr %14, align 8, !tbaa !118
  %16 = icmp ne ptr %15, null
  br i1 %16, label %17, label %28

17:                                               ; preds = %3
  %18 = load ptr, ptr %4, align 8, !tbaa !85
  %19 = getelementptr inbounds nuw %struct._Bucket, ptr %18, i32 0, i32 2
  %20 = load ptr, ptr %19, align 8, !tbaa !118
  %21 = getelementptr inbounds nuw %struct._zend_string, ptr %20, i32 0, i32 3
  %22 = getelementptr inbounds [1 x i8], ptr %21, i64 0, i64 0
  store ptr %22, ptr %7, align 8, !tbaa !18
  %23 = load ptr, ptr %4, align 8, !tbaa !85
  %24 = getelementptr inbounds nuw %struct._Bucket, ptr %23, i32 0, i32 2
  %25 = load ptr, ptr %24, align 8, !tbaa !118
  %26 = getelementptr inbounds nuw %struct._zend_string, ptr %25, i32 0, i32 2
  %27 = load i64, ptr %26, align 8, !tbaa !119
  store i64 %27, ptr %9, align 8, !tbaa !15
  br label %43

28:                                               ; preds = %3
  %29 = getelementptr inbounds [21 x i8], ptr %11, i64 0, i64 0
  %30 = getelementptr inbounds nuw i8, ptr %29, i64 21
  %31 = getelementptr inbounds i8, ptr %30, i64 -1
  %32 = load ptr, ptr %4, align 8, !tbaa !85
  %33 = getelementptr inbounds nuw %struct._Bucket, ptr %32, i32 0, i32 1
  %34 = load i64, ptr %33, align 8, !tbaa !116
  %35 = call ptr @zend_print_long_to_buf(ptr noundef %31, i64 noundef %34)
  store ptr %35, ptr %7, align 8, !tbaa !18
  %36 = getelementptr inbounds [21 x i8], ptr %11, i64 0, i64 0
  %37 = getelementptr inbounds nuw i8, ptr %36, i64 21
  %38 = getelementptr inbounds i8, ptr %37, i64 -1
  %39 = load ptr, ptr %7, align 8, !tbaa !18
  %40 = ptrtoint ptr %38 to i64
  %41 = ptrtoint ptr %39 to i64
  %42 = sub i64 %40, %41
  store i64 %42, ptr %9, align 8, !tbaa !15
  br label %43

43:                                               ; preds = %28, %17
  %44 = load ptr, ptr %5, align 8, !tbaa !85
  %45 = getelementptr inbounds nuw %struct._Bucket, ptr %44, i32 0, i32 2
  %46 = load ptr, ptr %45, align 8, !tbaa !118
  %47 = icmp ne ptr %46, null
  br i1 %47, label %48, label %59

48:                                               ; preds = %43
  %49 = load ptr, ptr %5, align 8, !tbaa !85
  %50 = getelementptr inbounds nuw %struct._Bucket, ptr %49, i32 0, i32 2
  %51 = load ptr, ptr %50, align 8, !tbaa !118
  %52 = getelementptr inbounds nuw %struct._zend_string, ptr %51, i32 0, i32 3
  %53 = getelementptr inbounds [1 x i8], ptr %52, i64 0, i64 0
  store ptr %53, ptr %8, align 8, !tbaa !18
  %54 = load ptr, ptr %5, align 8, !tbaa !85
  %55 = getelementptr inbounds nuw %struct._Bucket, ptr %54, i32 0, i32 2
  %56 = load ptr, ptr %55, align 8, !tbaa !118
  %57 = getelementptr inbounds nuw %struct._zend_string, ptr %56, i32 0, i32 2
  %58 = load i64, ptr %57, align 8, !tbaa !119
  store i64 %58, ptr %10, align 8, !tbaa !15
  br label %74

59:                                               ; preds = %43
  %60 = getelementptr inbounds [21 x i8], ptr %12, i64 0, i64 0
  %61 = getelementptr inbounds nuw i8, ptr %60, i64 21
  %62 = getelementptr inbounds i8, ptr %61, i64 -1
  %63 = load ptr, ptr %5, align 8, !tbaa !85
  %64 = getelementptr inbounds nuw %struct._Bucket, ptr %63, i32 0, i32 1
  %65 = load i64, ptr %64, align 8, !tbaa !116
  %66 = call ptr @zend_print_long_to_buf(ptr noundef %62, i64 noundef %65)
  store ptr %66, ptr %8, align 8, !tbaa !18
  %67 = getelementptr inbounds [21 x i8], ptr %12, i64 0, i64 0
  %68 = getelementptr inbounds nuw i8, ptr %67, i64 21
  %69 = getelementptr inbounds i8, ptr %68, i64 -1
  %70 = load ptr, ptr %8, align 8, !tbaa !18
  %71 = ptrtoint ptr %69 to i64
  %72 = ptrtoint ptr %70 to i64
  %73 = sub i64 %71, %72
  store i64 %73, ptr %10, align 8, !tbaa !15
  br label %74

74:                                               ; preds = %59, %48
  %75 = load ptr, ptr %7, align 8, !tbaa !18
  %76 = load i64, ptr %9, align 8, !tbaa !15
  %77 = load ptr, ptr %8, align 8, !tbaa !18
  %78 = load i64, ptr %10, align 8, !tbaa !15
  %79 = load i32, ptr %6, align 4, !tbaa !4
  %80 = icmp ne i32 %79, 0
  %81 = call i32 @strnatcmp_ex(ptr noundef %75, i64 noundef %76, ptr noundef %77, i64 noundef %78, i1 noundef zeroext %80)
  call void @llvm.lifetime.end.p0(i64 21, ptr %12) #17
  call void @llvm.lifetime.end.p0(i64 21, ptr %11) #17
  call void @llvm.lifetime.end.p0(i64 8, ptr %10) #17
  call void @llvm.lifetime.end.p0(i64 8, ptr %9) #17
  call void @llvm.lifetime.end.p0(i64 8, ptr %8) #17
  call void @llvm.lifetime.end.p0(i64 8, ptr %7) #17
  ret i32 %81
}