; Function Attrs: nounwind uwtable
define internal fastcc i32 @php_array_key_compare_string_natural_general(ptr noundef readonly captures(none) %0, ptr noundef readonly captures(none) %1, i32 noundef range(i32 0, 2) %2) unnamed_addr #2 {
  %4 = alloca [21 x i8], align 16
  %5 = alloca [21 x i8], align 16
  call void @llvm.lifetime.start.p0(i64 21, ptr nonnull %4) #21
  call void @llvm.lifetime.start.p0(i64 21, ptr nonnull %5) #21
  %6 = getelementptr inbounds nuw i8, ptr %0, i64 24
  %7 = load ptr, ptr %6, align 8, !tbaa !114
  %.not = icmp eq ptr %7, null
  br i1 %.not, label %12, label %8

8:                                                ; preds = %3
  %9 = getelementptr inbounds nuw i8, ptr %7, i64 24
  %10 = getelementptr inbounds nuw i8, ptr %7, i64 16
  %11 = load i64, ptr %10, align 8, !tbaa !118
  br label %36

12:                                               ; preds = %3
  %13 = getelementptr inbounds nuw i8, ptr %4, i64 20
  %14 = getelementptr inbounds nuw i8, ptr %0, i64 16
  %15 = load i64, ptr %14, align 8, !tbaa !116
  %16 = icmp slt i64 %15, 0
  br i1 %16, label %17, label %26

17:                                               ; preds = %12
  %18 = sub i64 0, %15
  store i8 0, ptr %13, align 4, !tbaa !8
  br label %19

19:                                               ; preds = %19, %17
  %.05.i = phi ptr [ %13, %17 ], [ %23, %19 ]
  %.0.i22 = phi i64 [ %18, %17 ], [ %24, %19 ]
  %20 = urem i64 %.0.i22, 10
  %21 = trunc nuw nsw i64 %20 to i8
  %22 = or disjoint i8 %21, 48
  %23 = getelementptr inbounds i8, ptr %.05.i, i64 -1
  store i8 %22, ptr %23, align 1, !tbaa !8
  %24 = udiv i64 %.0.i22, 10
  %.not.i = icmp ult i64 %.0.i22, 10
  br i1 %.not.i, label %zend_print_ulong_to_buf.exit, label %19

zend_print_ulong_to_buf.exit:                     ; preds = %19
  %25 = getelementptr inbounds i8, ptr %.05.i, i64 -2
  store i8 45, ptr %25, align 1, !tbaa !8
  br label %zend_print_long_to_buf.exit21

26:                                               ; preds = %12
  store i8 0, ptr %13, align 4, !tbaa !8
  br label %27

27:                                               ; preds = %27, %26
  %.05.i23 = phi ptr [ %13, %26 ], [ %31, %27 ]
  %.0.i24 = phi i64 [ %15, %26 ], [ %32, %27 ]
  %28 = urem i64 %.0.i24, 10
  %29 = trunc nuw nsw i64 %28 to i8
  %30 = or disjoint i8 %29, 48
  %31 = getelementptr inbounds i8, ptr %.05.i23, i64 -1
  store i8 %30, ptr %31, align 1, !tbaa !8
  %32 = udiv i64 %.0.i24, 10
  %.not.i25 = icmp ult i64 %.0.i24, 10
  br i1 %.not.i25, label %zend_print_long_to_buf.exit21, label %27

zend_print_long_to_buf.exit21:                    ; preds = %27, %zend_print_ulong_to_buf.exit
  %.0.i20 = phi ptr [ %25, %zend_print_ulong_to_buf.exit ], [ %31, %27 ]
  %33 = ptrtoint ptr %13 to i64
  %34 = ptrtoint ptr %.0.i20 to i64
  %35 = sub i64 %33, %34
  br label %36

36:                                               ; preds = %zend_print_long_to_buf.exit21, %8
  %.016 = phi ptr [ %9, %8 ], [ %.0.i20, %zend_print_long_to_buf.exit21 ]
  %.014 = phi i64 [ %11, %8 ], [ %35, %zend_print_long_to_buf.exit21 ]
  %37 = getelementptr inbounds nuw i8, ptr %1, i64 24
  %38 = load ptr, ptr %37, align 8, !tbaa !114
  %.not19 = icmp eq ptr %38, null
  br i1 %.not19, label %43, label %39

39:                                               ; preds = %36
  %40 = getelementptr inbounds nuw i8, ptr %38, i64 24
  %41 = getelementptr inbounds nuw i8, ptr %38, i64 16
  %42 = load i64, ptr %41, align 8, !tbaa !118
  br label %67

43:                                               ; preds = %36
  %44 = getelementptr inbounds nuw i8, ptr %5, i64 20
  %45 = getelementptr inbounds nuw i8, ptr %1, i64 16
  %46 = load i64, ptr %45, align 8, !tbaa !116
  %47 = icmp slt i64 %46, 0
  br i1 %47, label %48, label %57

48:                                               ; preds = %43
  %49 = sub i64 0, %46
  store i8 0, ptr %44, align 4, !tbaa !8
  br label %50

50:                                               ; preds = %50, %48
  %.05.i27 = phi ptr [ %44, %48 ], [ %54, %50 ]
  %.0.i28 = phi i64 [ %49, %48 ], [ %55, %50 ]
  %51 = urem i64 %.0.i28, 10
  %52 = trunc nuw nsw i64 %51 to i8
  %53 = or disjoint i8 %52, 48
  %54 = getelementptr inbounds i8, ptr %.05.i27, i64 -1
  store i8 %53, ptr %54, align 1, !tbaa !8
  %55 = udiv i64 %.0.i28, 10
  %.not.i29 = icmp ult i64 %.0.i28, 10
  br i1 %.not.i29, label %zend_print_ulong_to_buf.exit30, label %50

zend_print_ulong_to_buf.exit30:                   ; preds = %50
  %56 = getelementptr inbounds i8, ptr %.05.i27, i64 -2
  store i8 45, ptr %56, align 1, !tbaa !8
  br label %zend_print_long_to_buf.exit

57:                                               ; preds = %43
  store i8 0, ptr %44, align 4, !tbaa !8
  br label %58

58:                                               ; preds = %58, %57
  %.05.i31 = phi ptr [ %44, %57 ], [ %62, %58 ]
  %.0.i32 = phi i64 [ %46, %57 ], [ %63, %58 ]
  %59 = urem i64 %.0.i32, 10
  %60 = trunc nuw nsw i64 %59 to i8
  %61 = or disjoint i8 %60, 48
  %62 = getelementptr inbounds i8, ptr %.05.i31, i64 -1
  store i8 %61, ptr %62, align 1, !tbaa !8
  %63 = udiv i64 %.0.i32, 10
  %.not.i33 = icmp ult i64 %.0.i32, 10
  br i1 %.not.i33, label %zend_print_long_to_buf.exit, label %58

zend_print_long_to_buf.exit:                      ; preds = %58, %zend_print_ulong_to_buf.exit30
  %.0.i = phi ptr [ %56, %zend_print_ulong_to_buf.exit30 ], [ %62, %58 ]
  %64 = ptrtoint ptr %44 to i64
  %65 = ptrtoint ptr %.0.i to i64
  %66 = sub i64 %64, %65
  br label %67

67:                                               ; preds = %zend_print_long_to_buf.exit, %39
  %.015 = phi ptr [ %40, %39 ], [ %.0.i, %zend_print_long_to_buf.exit ]
  %.0 = phi i64 [ %42, %39 ], [ %66, %zend_print_long_to_buf.exit ]
  %68 = icmp ne i32 %2, 0
  %69 = call i32 @strnatcmp_ex(ptr noundef nonnull %.016, i64 noundef %.014, ptr noundef nonnull %.015, i64 noundef %.0, i1 noundef zeroext %68) #21
  call void @llvm.lifetime.end.p0(i64 21, ptr nonnull %5) #21
  call void @llvm.lifetime.end.p0(i64 21, ptr nonnull %4) #21
  ret i32 %69
}